target datalayout = "e-m:e-p270:32:32-p271:32:32-p272:64:64-i64:64-i128:128-f80:128-n8:16:32:64-S128"
target triple = "x86_64-unknown-linux-gnu"

; Function Attrs: mustprogress nounwind uwtable
define noundef zeroext i1 @_ZN8proxygen17StaticHeaderTable36isHeaderCodeInTableWithNonEmptyValueENS_14HTTPHeaderCodeE(i8 noundef zeroext %headerCode) #4 align 2 {
entry:
  %retval = alloca i1, align 1
  %headerCode.addr = alloca i8, align 1
  store i8 %headerCode, ptr %headerCode.addr, align 1
  %0 = load i8, ptr %headerCode.addr, align 1
  %conv = zext i8 %0 to i32
  switch i32 %conv, label %sw.default [
    i32 3, label %sw.bb
    i32 4, label %sw.bb
    i32 6, label %sw.bb
    i32 7, label %sw.bb
    i32 10, label %sw.bb
  ]

sw.bb:                                            ; preds = %entry, %entry, %entry, %entry, %entry
  store i1 true, ptr %retval, align 1
  br label %return

sw.default:                                       ; preds = %entry
  store i1 false, ptr %retval, align 1
  br label %return

return:                                           ; preds = %sw.default, %sw.bb
  %1 = load i1, ptr %retval, align 1
  ret i1 %1
}