; Function Attrs: mustprogress nofree norecurse nosync nounwind willreturn memory(none) uwtable
define noundef zeroext i1 @_ZN8proxygen17StaticHeaderTable36isHeaderCodeInTableWithNonEmptyValueENS_14HTTPHeaderCodeE(i8 noundef zeroext %headerCode) local_unnamed_addr #3 align 2 {
entry:
  %0 = icmp ult i8 %headerCode, 11
  %switch.cast = zext nneg i8 %headerCode to i11
  %switch.downshift = lshr i11 -808, %switch.cast
  %1 = and i11 %switch.downshift, 1
  %switch.masked = icmp ne i11 %1, 0
  %retval.0 = select i1 %0, i1 %switch.masked, i1 false
  ret i1 %retval.0
}